; Function Attrs: mustprogress uwtable
define dso_local noundef zeroext i1 @_ZNK3net19QuicStreamSequencer8IsClosedEv(ptr noundef nonnull align 8 dereferenceable(169) %this) local_unnamed_addr #0 align 2 {
entry:
  %buffered_frames_ = getelementptr inbounds i8, ptr %this, i64 16
  %call = tail call noundef i64 @_ZNK3net25QuicStreamSequencerBuffer13BytesConsumedEv(ptr noundef nonnull align 8 dereferenceable(120) %buffered_frames_)
  %close_offset_ = getelementptr inbounds i8, ptr %this, i64 136
  %0 = load i64, ptr %close_offset_, align 8
  %cmp = icmp uge i64 %call, %0
  ret i1 %cmp
}